; Function Attrs: mustprogress uwtable
define internal noundef i32 @_ZL54fake_handshaker_result_create_zero_copy_grpc_protectorPK21tsi_handshaker_resultPmPP28tsi_zero_copy_grpc_protector(ptr readnone captures(none) %0, ptr noundef readonly %1, ptr noundef writeonly captures(none) initializes((0, 8)) %2) #3 {
  %4 = tail call ptr @gpr_zalloc(i64 noundef 488)
  %5 = getelementptr inbounds nuw i8, ptr %4, i64 8
  tail call void @grpc_slice_buffer_init(ptr noundef nonnull %5)
  %6 = getelementptr inbounds nuw i8, ptr %4, i64 240
  tail call void @grpc_slice_buffer_init(ptr noundef nonnull %6)
  %7 = icmp eq ptr %1, null
  br i1 %7, label %_Z40tsi_create_fake_zero_copy_grpc_protectorPm.exit, label %8

8:                                                ; preds = %3
  %9 = load i64, ptr %1, align 8, !tbaa !40
  br label %_Z40tsi_create_fake_zero_copy_grpc_protectorPm.exit

_Z40tsi_create_fake_zero_copy_grpc_protectorPm.exit: ; preds = %3, %8
  %10 = phi i64 [ %9, %8 ], [ 16384, %3 ]
  %11 = getelementptr inbounds nuw i8, ptr %4, i64 472
  store i64 %10, ptr %11, align 8, !tbaa !46
  %12 = getelementptr inbounds nuw i8, ptr %4, i64 480
  store i64 0, ptr %12, align 8, !tbaa !50
  store ptr @_ZL31zero_copy_grpc_protector_vtable, ptr %4, align 8, !tbaa !51
  store ptr %4, ptr %2, align 8, !tbaa !81
  ret i32 0
}